target datalayout = "e-m:e-p270:32:32-p271:32:32-p272:64:64-i64:64-i128:128-f80:128-n8:16:32:64-S128"
target triple = "x86_64-pc-linux-gnu"

%struct.CipherSuiteInfo = type { ptr, ptr, i8, i8, i8 }

; Function Attrs: nounwind uwtable
define i32 @wolfSSL_get_ciphers_iana(ptr noundef %0, i32 noundef %1) #0 {
  %3 = alloca i32, align 4
  %4 = alloca ptr, align 8
  %5 = alloca i32, align 4
  %6 = alloca ptr, align 8
  %7 = alloca i32, align 4
  %8 = alloca i32, align 4
  %9 = alloca i32, align 4
  %10 = alloca i32, align 4
  store ptr %0, ptr %4, align 8, !tbaa !21
  store i32 %1, ptr %5, align 4, !tbaa !7
  call void @llvm.lifetime.start.p0(i64 8, ptr %6) #9
  %11 = call ptr @GetCipherNames()
  store ptr %11, ptr %6, align 8, !tbaa !141
  call void @llvm.lifetime.start.p0(i64 4, ptr %7) #9
  %12 = call i32 @GetCipherNamesSize()
  store i32 %12, ptr %7, align 4, !tbaa !7
  call void @llvm.lifetime.start.p0(i64 4, ptr %8) #9
  call void @llvm.lifetime.start.p0(i64 4, ptr %9) #9
  %13 = load ptr, ptr %4, align 8, !tbaa !21
  %14 = icmp eq ptr %13, null
  br i1 %14, label %18, label %15

15:                                               ; preds = %2
  %16 = load i32, ptr %5, align 4, !tbaa !7
  %17 = icmp sle i32 %16, 0
  br i1 %17, label %18, label %19

18:                                               ; preds = %15, %2
  store i32 -173, ptr %3, align 4
  store i32 1, ptr %10, align 4
  br label %82

19:                                               ; preds = %15
  store i32 0, ptr %8, align 4, !tbaa !7
  br label %20

20:                                               ; preds = %78, %19
  %21 = load i32, ptr %8, align 4, !tbaa !7
  %22 = load i32, ptr %7, align 4, !tbaa !7
  %23 = icmp slt i32 %21, %22
  br i1 %23, label %24, label %81

24:                                               ; preds = %20
  %25 = load ptr, ptr %6, align 8, !tbaa !141
  %26 = load i32, ptr %8, align 4, !tbaa !7
  %27 = sext i32 %26 to i64
  %28 = getelementptr inbounds %struct.CipherSuiteInfo, ptr %25, i64 %27
  %29 = getelementptr inbounds nuw %struct.CipherSuiteInfo, ptr %28, i32 0, i32 4
  %30 = load i8, ptr %29, align 2, !tbaa !146
  %31 = zext i8 %30 to i32
  %32 = and i32 %31, 1
  %33 = icmp ne i32 %32, 0
  br i1 %33, label %34, label %35

34:                                               ; preds = %24
  br label %78

35:                                               ; preds = %24
  %36 = load ptr, ptr %6, align 8, !tbaa !141
  %37 = load i32, ptr %8, align 4, !tbaa !7
  %38 = sext i32 %37 to i64
  %39 = getelementptr inbounds %struct.CipherSuiteInfo, ptr %36, i64 %38
  %40 = getelementptr inbounds nuw %struct.CipherSuiteInfo, ptr %39, i32 0, i32 1
  %41 = load ptr, ptr %40, align 8, !tbaa !147
  %42 = call i64 @strlen(ptr noundef %41) #10
  %43 = trunc i64 %42 to i32
  store i32 %43, ptr %9, align 4, !tbaa !7
  %44 = load i32, ptr %9, align 4, !tbaa !7
  %45 = add nsw i32 %44, 1
  %46 = load i32, ptr %5, align 4, !tbaa !7
  %47 = icmp slt i32 %45, %46
  br i1 %47, label %48, label %76

48:                                               ; preds = %35
  %49 = load ptr, ptr %4, align 8, !tbaa !21
  %50 = load ptr, ptr %6, align 8, !tbaa !141
  %51 = load i32, ptr %8, align 4, !tbaa !7
  %52 = sext i32 %51 to i64
  %53 = getelementptr inbounds %struct.CipherSuiteInfo, ptr %50, i64 %52
  %54 = getelementptr inbounds nuw %struct.CipherSuiteInfo, ptr %53, i32 0, i32 1
  %55 = load ptr, ptr %54, align 8, !tbaa !147
  %56 = load i32, ptr %5, align 4, !tbaa !7
  %57 = sext i32 %56 to i64
  %58 = call ptr @strncpy(ptr noundef %49, ptr noundef %55, i64 noundef %57) #9
  %59 = load i32, ptr %9, align 4, !tbaa !7
  %60 = load ptr, ptr %4, align 8, !tbaa !21
  %61 = sext i32 %59 to i64
  %62 = getelementptr inbounds i8, ptr %60, i64 %61
  store ptr %62, ptr %4, align 8, !tbaa !21
  %63 = load i32, ptr %8, align 4, !tbaa !7
  %64 = load i32, ptr %7, align 4, !tbaa !7
  %65 = sub nsw i32 %64, 1
  %66 = icmp slt i32 %63, %65
  br i1 %66, label %67, label %70

67:                                               ; preds = %48
  %68 = load ptr, ptr %4, align 8, !tbaa !21
  %69 = getelementptr inbounds nuw i8, ptr %68, i32 1
  store ptr %69, ptr %4, align 8, !tbaa !21
  store i8 58, ptr %68, align 1, !tbaa !20
  br label %70

70:                                               ; preds = %67, %48
  %71 = load ptr, ptr %4, align 8, !tbaa !21
  store i8 0, ptr %71, align 1, !tbaa !20
  %72 = load i32, ptr %9, align 4, !tbaa !7
  %73 = add nsw i32 %72, 1
  %74 = load i32, ptr %5, align 4, !tbaa !7
  %75 = sub nsw i32 %74, %73
  store i32 %75, ptr %5, align 4, !tbaa !7
  br label %77

76:                                               ; preds = %35
  store i32 -132, ptr %3, align 4
  store i32 1, ptr %10, align 4
  br label %82

77:                                               ; preds = %70
  br label %78

78:                                               ; preds = %77, %34
  %79 = load i32, ptr %8, align 4, !tbaa !7
  %80 = add nsw i32 %79, 1
  store i32 %80, ptr %8, align 4, !tbaa !7
  br label %20, !llvm.loop !148

81:                                               ; preds = %20
  store i32 1, ptr %3, align 4
  store i32 1, ptr %10, align 4
  br label %82

82:                                               ; preds = %81, %76, %18
  call void @llvm.lifetime.end.p0(i64 4, ptr %9) #9
  call void @llvm.lifetime.end.p0(i64 4, ptr %8) #9
  call void @llvm.lifetime.end.p0(i64 4, ptr %7) #9
  call void @llvm.lifetime.end.p0(i64 8, ptr %6) #9
  %83 = load i32, ptr %3, align 4
  ret i32 %83
}