; Function Attrs: nounwind uwtable
define range(i32 -173, 2) i32 @wolfSSL_get_ciphers_iana(ptr noundef %0, i32 noundef %1) local_unnamed_addr #0 {
  %3 = tail call ptr @GetCipherNames() #22
  %4 = tail call i32 @GetCipherNamesSize() #22
  %5 = icmp eq ptr %0, null
  %6 = icmp slt i32 %1, 1
  %or.cond = or i1 %5, %6
  br i1 %or.cond, label %.loopexit, label %.preheader

.preheader:                                       ; preds = %2
  %7 = icmp sgt i32 %4, 0
  br i1 %7, label %.lr.ph, label %.loopexit

.lr.ph:                                           ; preds = %.preheader
  %8 = add nsw i32 %4, -1
  %9 = zext nneg i32 %8 to i64
  %wide.trip.count = zext nneg i32 %4 to i64
  br label %10

10:                                               ; preds = %.lr.ph, %32
  %indvars.iv = phi i64 [ 0, %.lr.ph ], [ %indvars.iv.next, %32 ]
  %.02533 = phi ptr [ %0, %.lr.ph ], [ %.1, %32 ]
  %.02632 = phi i32 [ %1, %.lr.ph ], [ %.127, %32 ]
  %11 = getelementptr inbounds nuw %struct.CipherSuiteInfo, ptr %3, i64 %indvars.iv
  %12 = getelementptr inbounds nuw i8, ptr %11, i64 18
  %13 = load i8, ptr %12, align 2, !tbaa !124
  %14 = and i8 %13, 1
  %.not = icmp eq i8 %14, 0
  br i1 %.not, label %15, label %32

15:                                               ; preds = %10
  %16 = getelementptr inbounds nuw i8, ptr %11, i64 8
  %17 = load ptr, ptr %16, align 8, !tbaa !125
  %18 = tail call i64 @strlen(ptr noundef nonnull dereferenceable(1) %17) #23
  %19 = trunc i64 %18 to i32
  %20 = add nsw i32 %19, 1
  %21 = icmp slt i32 %20, %.02632
  br i1 %21, label %22, label %.loopexit

22:                                               ; preds = %15
  %23 = sext i32 %.02632 to i64
  %24 = tail call ptr @strncpy(ptr noundef %.02533, ptr noundef nonnull %17, i64 noundef %23) #22
  %sext = shl i64 %18, 32
  %25 = ashr exact i64 %sext, 32
  %26 = getelementptr inbounds i8, ptr %.02533, i64 %25
  %27 = icmp samesign ult i64 %indvars.iv, %9
  br i1 %27, label %28, label %30

28:                                               ; preds = %22
  %29 = getelementptr inbounds nuw i8, ptr %26, i64 1
  store i8 58, ptr %26, align 1, !tbaa !43
  br label %30

30:                                               ; preds = %28, %22
  %.2 = phi ptr [ %29, %28 ], [ %26, %22 ]
  store i8 0, ptr %.2, align 1, !tbaa !43
  %31 = sub nsw i32 %.02632, %20
  br label %32

32:                                               ; preds = %10, %30
  %.127 = phi i32 [ %.02632, %10 ], [ %31, %30 ]
  %.1 = phi ptr [ %.02533, %10 ], [ %.2, %30 ]
  %indvars.iv.next = add nuw nsw i64 %indvars.iv, 1
  %exitcond.not = icmp eq i64 %indvars.iv.next, %wide.trip.count
  br i1 %exitcond.not, label %.loopexit, label %10, !llvm.loop !126

.loopexit:                                        ; preds = %15, %32, %.preheader, %2
  %.0 = phi i32 [ -173, %2 ], [ 1, %.preheader ], [ -132, %15 ], [ 1, %32 ]
  ret i32 %.0
}